; Function Attrs: mustprogress uwtable
define hidden noundef range(i32 -100, 1) i32 @_ZNK4ncnn5Reorg7forwardERKNS_3MatERS1_RKNS_6OptionE(ptr noundef nonnull align 8 dereferenceable(216) %0, ptr noundef nonnull align 8 dereferenceable(72) %1, ptr noundef nonnull align 8 dereferenceable(72) %2, ptr noundef nonnull readonly align 8 captures(none) dereferenceable(64) %3) unnamed_addr #2 align 2 {
  %5 = alloca i32, align 4
  %6 = alloca i32, align 4
  %7 = alloca i32, align 4
  %8 = tail call i32 @__kmpc_global_thread_num(ptr nonnull @2)
  %9 = getelementptr inbounds nuw i8, ptr %1, i64 44
  %10 = load i32, ptr %9, align 4, !tbaa !27
  %11 = getelementptr inbounds nuw i8, ptr %1, i64 48
  %12 = load i32, ptr %11, align 8, !tbaa !30
  call void @llvm.lifetime.start.p0(i64 4, ptr nonnull %5) #6
  %13 = getelementptr inbounds nuw i8, ptr %1, i64 56
  %14 = load i32, ptr %13, align 8, !tbaa !31
  store i32 %14, ptr %5, align 4, !tbaa !32
  %15 = getelementptr inbounds nuw i8, ptr %1, i64 16
  %16 = load i64, ptr %15, align 8, !tbaa !33
  call void @llvm.lifetime.start.p0(i64 4, ptr nonnull %6) #6
  %17 = getelementptr inbounds nuw i8, ptr %0, i64 208
  %18 = load i32, ptr %17, align 8, !tbaa !4
  %19 = sdiv i32 %10, %18
  store i32 %19, ptr %6, align 4, !tbaa !32
  call void @llvm.lifetime.start.p0(i64 4, ptr nonnull %7) #6
  %20 = sdiv i32 %12, %18
  store i32 %20, ptr %7, align 4, !tbaa !32
  %21 = mul nsw i32 %18, %14
  %22 = mul nsw i32 %21, %18
  %23 = getelementptr inbounds nuw i8, ptr %3, i64 8
  %24 = load ptr, ptr %23, align 8, !tbaa !34
  tail call void @_ZN4ncnn3Mat6createEiiimPNS_9AllocatorE(ptr noundef nonnull align 8 dereferenceable(72) %2, i32 noundef %19, i32 noundef %20, i32 noundef %22, i64 noundef %16, ptr noundef %24)
  %25 = load ptr, ptr %2, align 8, !tbaa !36
  %26 = icmp eq ptr %25, null
  br i1 %26, label %_ZNK4ncnn3Mat5emptyEv.exit.thread, label %_ZNK4ncnn3Mat5emptyEv.exit

_ZNK4ncnn3Mat5emptyEv.exit:                       ; preds = %4
  %27 = getelementptr inbounds nuw i8, ptr %2, i64 64
  %28 = load i64, ptr %27, align 8, !tbaa !37
  %29 = getelementptr inbounds nuw i8, ptr %2, i64 56
  %30 = load i32, ptr %29, align 8, !tbaa !31
  %31 = sext i32 %30 to i64
  %32 = mul i64 %28, %31
  %33 = icmp eq i64 %32, 0
  br i1 %33, label %_ZNK4ncnn3Mat5emptyEv.exit.thread, label %34

34:                                               ; preds = %_ZNK4ncnn3Mat5emptyEv.exit
  %35 = getelementptr inbounds nuw i8, ptr %3, i64 4
  %36 = load i32, ptr %35, align 4, !tbaa !38
  tail call void @__kmpc_push_num_threads(ptr nonnull @2, i32 %8, i32 %36)
  call void (ptr, i32, ptr, ...) @__kmpc_fork_call(ptr nonnull @2, i32 6, ptr nonnull @_ZNK4ncnn5Reorg7forwardERKNS_3MatERS1_RKNS_6OptionE.omp_outlined, ptr nonnull %5, ptr nonnull %1, ptr nonnull %0, ptr nonnull %2, ptr nonnull %7, ptr nonnull %6)
  br label %_ZNK4ncnn3Mat5emptyEv.exit.thread

_ZNK4ncnn3Mat5emptyEv.exit.thread:                ; preds = %4, %_ZNK4ncnn3Mat5emptyEv.exit, %34
  %.0 = phi i32 [ 0, %34 ], [ -100, %_ZNK4ncnn3Mat5emptyEv.exit ], [ -100, %4 ]
  call void @llvm.lifetime.end.p0(i64 4, ptr nonnull %7) #6
  call void @llvm.lifetime.end.p0(i64 4, ptr nonnull %6) #6
  call void @llvm.lifetime.end.p0(i64 4, ptr nonnull %5) #6
  ret i32 %.0
}